; Function Attrs: mustprogress uwtable
define hidden void @_ZN3smt5setup13setup_AUFLIRAEb(ptr nocapture noundef nonnull readonly align 8 dereferenceable(33) %this, i1 noundef zeroext %simple_array) local_unnamed_addr #4 align 2 {
entry:
  %m_params = getelementptr inbounds i8, ptr %this, i64 16
  %0 = load ptr, ptr %m_params, align 8
  tail call void @_ZN10smt_params13setup_AUFLIRAEb(ptr noundef nonnull align 8 dereferenceable(800) %0, i1 noundef zeroext %simple_array)
  tail call void @_ZN3smt5setup14setup_mi_arithEv(ptr noundef nonnull align 8 dereferenceable(33) %this)
  tail call void @_ZN3smt5setup12setup_arraysEv(ptr noundef nonnull align 8 dereferenceable(33) %this)
  ret void
}